target datalayout = "e-m:e-p270:32:32-p271:32:32-p272:64:64-i64:64-i128:128-f80:128-n8:16:32:64-S128"
target triple = "x86_64-pc-linux-gnu"

%struct.Vec_Int_t_ = type { i32, i32, ptr }
%struct.Gia_Iso2Man_t_ = type { ptr, i32, i32, ptr, ptr, ptr, ptr, ptr, ptr, ptr, ptr, ptr, i32, i64, i64, i64, i64, i64, i64 }
%struct.Vec_Ptr_t_ = type { i32, i32, ptr }

; Function Attrs: inlinehint nounwind uwtable
define internal void @Vec_PtrFree(ptr noundef %0) #2 {
  %2 = alloca ptr, align 8
  store ptr %0, ptr %2, align 8, !tbaa !67
  %3 = load ptr, ptr %2, align 8, !tbaa !67
  %4 = getelementptr inbounds nuw %struct.Vec_Ptr_t_, ptr %3, i32 0, i32 2
  %5 = load ptr, ptr %4, align 8, !tbaa !71
  %6 = icmp ne ptr %5, null
  br i1 %6, label %7, label %13

7:                                                ; preds = %1
  %8 = load ptr, ptr %2, align 8, !tbaa !67
  %9 = getelementptr inbounds nuw %struct.Vec_Ptr_t_, ptr %8, i32 0, i32 2
  %10 = load ptr, ptr %9, align 8, !tbaa !71
  call void @free(ptr noundef %10) #12
  %11 = load ptr, ptr %2, align 8, !tbaa !67
  %12 = getelementptr inbounds nuw %struct.Vec_Ptr_t_, ptr %11, i32 0, i32 2
  store ptr null, ptr %12, align 8, !tbaa !71
  br label %14

13:                                               ; preds = %1
  br label %14

14:                                               ; preds = %13, %7
  %15 = load ptr, ptr %2, align 8, !tbaa !67
  %16 = icmp ne ptr %15, null
  br i1 %16, label %17, label %19

17:                                               ; preds = %14
  %18 = load ptr, ptr %2, align 8, !tbaa !67
  call void @free(ptr noundef %18) #12
  store ptr null, ptr %2, align 8, !tbaa !67
  br label %20

19:                                               ; preds = %14
  br label %20

20:                                               ; preds = %19, %17
  ret void
}

; Function Attrs: inlinehint nounwind uwtable
define internal void @Vec_IntFree(ptr noundef %0) #2 {
  %2 = alloca ptr, align 8
  store ptr %0, ptr %2, align 8, !tbaa !8
  %3 = load ptr, ptr %2, align 8, !tbaa !8
  %4 = getelementptr inbounds nuw %struct.Vec_Int_t_, ptr %3, i32 0, i32 2
  %5 = load ptr, ptr %4, align 8, !tbaa !36
  %6 = icmp ne ptr %5, null
  br i1 %6, label %7, label %13

7:                                                ; preds = %1
  %8 = load ptr, ptr %2, align 8, !tbaa !8
  %9 = getelementptr inbounds nuw %struct.Vec_Int_t_, ptr %8, i32 0, i32 2
  %10 = load ptr, ptr %9, align 8, !tbaa !36
  call void @free(ptr noundef %10) #12
  %11 = load ptr, ptr %2, align 8, !tbaa !8
  %12 = getelementptr inbounds nuw %struct.Vec_Int_t_, ptr %11, i32 0, i32 2
  store ptr null, ptr %12, align 8, !tbaa !36
  br label %14

13:                                               ; preds = %1
  br label %14

14:                                               ; preds = %13, %7
  %15 = load ptr, ptr %2, align 8, !tbaa !8
  %16 = icmp ne ptr %15, null
  br i1 %16, label %17, label %19

17:                                               ; preds = %14
  %18 = load ptr, ptr %2, align 8, !tbaa !8
  call void @free(ptr noundef %18) #12
  store ptr null, ptr %2, align 8, !tbaa !8
  br label %20

19:                                               ; preds = %14
  br label %20

20:                                               ; preds = %19, %17
  ret void
}

; Function Attrs: nounwind uwtable
define void @Gia_Iso2ManStop(ptr noundef %0) #0 {
  %2 = alloca ptr, align 8
  store ptr %0, ptr %2, align 8, !tbaa !49
  %3 = load ptr, ptr %2, align 8, !tbaa !49
  %4 = getelementptr inbounds nuw %struct.Gia_Iso2Man_t_, ptr %3, i32 0, i32 3
  %5 = load ptr, ptr %4, align 8, !tbaa !57
  call void @Vec_IntFree(ptr noundef %5)
  %6 = load ptr, ptr %2, align 8, !tbaa !49
  %7 = getelementptr inbounds nuw %struct.Gia_Iso2Man_t_, ptr %6, i32 0, i32 4
  %8 = load ptr, ptr %7, align 8, !tbaa !51
  call void @Vec_IntFree(ptr noundef %8)
  %9 = load ptr, ptr %2, align 8, !tbaa !49
  %10 = getelementptr inbounds nuw %struct.Gia_Iso2Man_t_, ptr %9, i32 0, i32 5
  %11 = load ptr, ptr %10, align 8, !tbaa !58
  call void @Vec_IntFree(ptr noundef %11)
  %12 = load ptr, ptr %2, align 8, !tbaa !49
  %13 = getelementptr inbounds nuw %struct.Gia_Iso2Man_t_, ptr %12, i32 0, i32 6
  %14 = load ptr, ptr %13, align 8, !tbaa !59
  call void @Vec_IntFree(ptr noundef %14)
  %15 = load ptr, ptr %2, align 8, !tbaa !49
  %16 = getelementptr inbounds nuw %struct.Gia_Iso2Man_t_, ptr %15, i32 0, i32 7
  %17 = load ptr, ptr %16, align 8, !tbaa !60
  call void @Vec_PtrFree(ptr noundef %17)
  %18 = load ptr, ptr %2, align 8, !tbaa !49
  %19 = getelementptr inbounds nuw %struct.Gia_Iso2Man_t_, ptr %18, i32 0, i32 10
  %20 = load ptr, ptr %19, align 8, !tbaa !63
  call void @Vec_IntFree(ptr noundef %20)
  %21 = load ptr, ptr %2, align 8, !tbaa !49
  %22 = getelementptr inbounds nuw %struct.Gia_Iso2Man_t_, ptr %21, i32 0, i32 11
  %23 = load ptr, ptr %22, align 8, !tbaa !64
  call void @Vec_IntFree(ptr noundef %23)
  %24 = load ptr, ptr %2, align 8, !tbaa !49
  %25 = getelementptr inbounds nuw %struct.Gia_Iso2Man_t_, ptr %24, i32 0, i32 8
  %26 = load ptr, ptr %25, align 8, !tbaa !61
  call void @Vec_IntFree(ptr noundef %26)
  %27 = load ptr, ptr %2, align 8, !tbaa !49
  %28 = getelementptr inbounds nuw %struct.Gia_Iso2Man_t_, ptr %27, i32 0, i32 9
  %29 = load ptr, ptr %28, align 8, !tbaa !62
  call void @Vec_IntFree(ptr noundef %29)
  %30 = load ptr, ptr %2, align 8, !tbaa !49
  %31 = icmp ne ptr %30, null
  br i1 %31, label %32, label %34

32:                                               ; preds = %1
  %33 = load ptr, ptr %2, align 8, !tbaa !49
  call void @free(ptr noundef %33) #12
  store ptr null, ptr %2, align 8, !tbaa !49
  br label %35

34:                                               ; preds = %1
  br label %35

35:                                               ; preds = %34, %32
  ret void
}