; Function Attrs: mustprogress nounwind willreturn uwtable
define void @Gia_Iso2ManStop(ptr noundef captures(none) %0) local_unnamed_addr #6 {
  %2 = getelementptr inbounds nuw i8, ptr %0, i64 16
  %3 = load ptr, ptr %2, align 8, !tbaa !51
  %4 = getelementptr inbounds nuw i8, ptr %3, i64 8
  %5 = load ptr, ptr %4, align 8, !tbaa !32
  %.not.i = icmp eq ptr %5, null
  br i1 %.not.i, label %Vec_IntFree.exit, label %6

6:                                                ; preds = %1
  tail call void @free(ptr noundef nonnull %5) #26
  br label %Vec_IntFree.exit

Vec_IntFree.exit:                                 ; preds = %1, %6
  tail call void @free(ptr noundef nonnull %3) #26
  %7 = getelementptr inbounds nuw i8, ptr %0, i64 24
  %8 = load ptr, ptr %7, align 8, !tbaa !46
  %9 = getelementptr inbounds nuw i8, ptr %8, i64 8
  %10 = load ptr, ptr %9, align 8, !tbaa !32
  %.not.i11 = icmp eq ptr %10, null
  br i1 %.not.i11, label %Vec_IntFree.exit12, label %11

11:                                               ; preds = %Vec_IntFree.exit
  tail call void @free(ptr noundef nonnull %10) #26
  br label %Vec_IntFree.exit12

Vec_IntFree.exit12:                               ; preds = %Vec_IntFree.exit, %11
  tail call void @free(ptr noundef nonnull %8) #26
  %12 = getelementptr inbounds nuw i8, ptr %0, i64 32
  %13 = load ptr, ptr %12, align 8, !tbaa !54
  %14 = getelementptr inbounds nuw i8, ptr %13, i64 8
  %15 = load ptr, ptr %14, align 8, !tbaa !32
  %.not.i13 = icmp eq ptr %15, null
  br i1 %.not.i13, label %Vec_IntFree.exit14, label %16

16:                                               ; preds = %Vec_IntFree.exit12
  tail call void @free(ptr noundef nonnull %15) #26
  br label %Vec_IntFree.exit14

Vec_IntFree.exit14:                               ; preds = %Vec_IntFree.exit12, %16
  tail call void @free(ptr noundef nonnull %13) #26
  %17 = getelementptr inbounds nuw i8, ptr %0, i64 40
  %18 = load ptr, ptr %17, align 8, !tbaa !55
  %19 = getelementptr inbounds nuw i8, ptr %18, i64 8
  %20 = load ptr, ptr %19, align 8, !tbaa !32
  %.not.i15 = icmp eq ptr %20, null
  br i1 %.not.i15, label %Vec_IntFree.exit16, label %21

21:                                               ; preds = %Vec_IntFree.exit14
  tail call void @free(ptr noundef nonnull %20) #26
  br label %Vec_IntFree.exit16

Vec_IntFree.exit16:                               ; preds = %Vec_IntFree.exit14, %21
  tail call void @free(ptr noundef nonnull %18) #26
  %22 = getelementptr inbounds nuw i8, ptr %0, i64 48
  %23 = load ptr, ptr %22, align 8, !tbaa !60
  %24 = getelementptr inbounds nuw i8, ptr %23, i64 8
  %25 = load ptr, ptr %24, align 8, !tbaa !59
  %.not.i17 = icmp eq ptr %25, null
  br i1 %.not.i17, label %Vec_PtrFree.exit, label %26

26:                                               ; preds = %Vec_IntFree.exit16
  tail call void @free(ptr noundef nonnull %25) #26
  br label %Vec_PtrFree.exit

Vec_PtrFree.exit:                                 ; preds = %Vec_IntFree.exit16, %26
  tail call void @free(ptr noundef nonnull %23) #26
  %27 = getelementptr inbounds nuw i8, ptr %0, i64 72
  %28 = load ptr, ptr %27, align 8, !tbaa !63
  %29 = getelementptr inbounds nuw i8, ptr %28, i64 8
  %30 = load ptr, ptr %29, align 8, !tbaa !32
  %.not.i18 = icmp eq ptr %30, null
  br i1 %.not.i18, label %Vec_IntFree.exit19, label %31

31:                                               ; preds = %Vec_PtrFree.exit
  tail call void @free(ptr noundef nonnull %30) #26
  br label %Vec_IntFree.exit19

Vec_IntFree.exit19:                               ; preds = %Vec_PtrFree.exit, %31
  tail call void @free(ptr noundef nonnull %28) #26
  %32 = getelementptr inbounds nuw i8, ptr %0, i64 80
  %33 = load ptr, ptr %32, align 8, !tbaa !64
  %34 = getelementptr inbounds nuw i8, ptr %33, i64 8
  %35 = load ptr, ptr %34, align 8, !tbaa !32
  %.not.i20 = icmp eq ptr %35, null
  br i1 %.not.i20, label %Vec_IntFree.exit21, label %36

36:                                               ; preds = %Vec_IntFree.exit19
  tail call void @free(ptr noundef nonnull %35) #26
  br label %Vec_IntFree.exit21

Vec_IntFree.exit21:                               ; preds = %Vec_IntFree.exit19, %36
  tail call void @free(ptr noundef nonnull %33) #26
  %37 = getelementptr inbounds nuw i8, ptr %0, i64 56
  %38 = load ptr, ptr %37, align 8, !tbaa !61
  %39 = getelementptr inbounds nuw i8, ptr %38, i64 8
  %40 = load ptr, ptr %39, align 8, !tbaa !32
  %.not.i22 = icmp eq ptr %40, null
  br i1 %.not.i22, label %Vec_IntFree.exit23, label %41

41:                                               ; preds = %Vec_IntFree.exit21
  tail call void @free(ptr noundef nonnull %40) #26
  br label %Vec_IntFree.exit23

Vec_IntFree.exit23:                               ; preds = %Vec_IntFree.exit21, %41
  tail call void @free(ptr noundef nonnull %38) #26
  %42 = getelementptr inbounds nuw i8, ptr %0, i64 64
  %43 = load ptr, ptr %42, align 8, !tbaa !62
  %44 = getelementptr inbounds nuw i8, ptr %43, i64 8
  %45 = load ptr, ptr %44, align 8, !tbaa !32
  %.not.i24 = icmp eq ptr %45, null
  br i1 %.not.i24, label %47, label %46

46:                                               ; preds = %Vec_IntFree.exit23
  tail call void @free(ptr noundef nonnull %45) #26
  br label %47

47:                                               ; preds = %Vec_IntFree.exit23, %46
  tail call void @free(ptr noundef nonnull %43) #26
  tail call void @free(ptr noundef nonnull %0) #26
  ret void
}